EXPORTS


?getNumElemBytes@PixelUtil@ma@@SAIW4PixelFormat@2@@Z
?isCompressed@PixelUtil@ma@@SA_NW4PixelFormat@2@@Z
?bulkPixelConversion@PixelUtil@ma@@SAXABVPixelBox@2@0@Z
?getMemorySize@PixelUtil@ma@@SAIIIIW4PixelFormat@2@@Z
?LoadFromXML@Resource@ma@@UAE_NPBD@Z
?SaveToXML@Resource@ma@@UAE_NPBD@Z
?LoadFromFile@Resource@ma@@UAE_NPBD@Z
?SaveToFile@Resource@ma@@UAE_NPBD@Z
?Load@Resource@ma@@UAE_NXZ
?LoadSync@Resource@ma@@UAEXXZ
?LoadFileToMemeory@Resource@ma@@MAE_NXZ
?CreateFromMemeory@Resource@ma@@MAE_NXZ
?Serialize@Resource@ma@@MAEXAAVSerializer@2@PBD@Z
?GetClass@Resource@ma@@UBEPAVRTTIClass@2@XZ
?StaticGetClass@Resource@ma@@SAPBVRTTIClass@2@XZ
?IsInited@Resource@ma@@QAE_NXZ
?CreateMemoryStream@ma@@YA?AV?$RefPtr@VMemoryStream@ma@@@1@I_N@Z
??1Resource@ma@@UAE@XZ
??1Object@ma@@UAE@XZ
?IsA@RTTIClass@ma@@QBE_NPBV12@@Z
?GetName@RTTIClass@ma@@QBEPBDXZ
?GetClass@Object@ma@@UBEPAVRTTIClass@2@XZ
?CreateRTTIClass@ma@@YA?AV?$RefPtr@VRTTIClass@ma@@@1@PBDPBVRTTIClass@1@@Z
??0Object@ma@@QAE@XZ
??1Component@ma@@UAE@XZ
?Serialize@Serializable@ma@@UAEXAAVSerializer@2@PBD@Z
?OnSetAttribute@Serializable@ma@@UAEXABUAttributeInfo@2@ABVAny@2@@Z
?OnGetAttribute@Serializable@ma@@UBEXABUAttributeInfo@2@AAVAny@2@@Z
?GetAttributeInfoByName@Serializable@ma@@UBEPBUAttributeInfo@2@PBD@Z
??1Serializable@ma@@UAE@XZ
?OnAddToSceneNode@Component@ma@@UAEXPAVSceneNode@2@@Z
?OnRemoveFromSceneNode@Component@ma@@UAEXPAVSceneNode@2@@Z
?GetClass@Component@ma@@UBEPAVRTTIClass@2@XZ
?RegisterAttribute@Context@ma@@QAEXPBDABUAttributeInfo@2@@Z
?RegisterRTTIClass@ClassManager@ma@@QAE_NPAVRTTIClass@2@@Z
??0Texture@ma@@QAE@PBD@Z
?GetClass@Texture@ma@@UBEPAVRTTIClass@2@XZ
?LoadSync@Texture@ma@@UAEXXZ
??0Texture@ma@@QAE@HHW4PixelFormat@1@W4USAGE@1@@Z
??0VertexDeclaration@ma@@QAE@XZ
??1VertexDeclaration@ma@@UAE@XZ
??0ShaderProgram@ma@@QAE@PBD@Z
?GetClass@ShaderProgram@ma@@UBEPAVRTTIClass@2@XZ
?Serialize@ShaderProgram@ma@@MAEXAAVSerializer@2@PBD@Z
?CreateFromMemeory@ShaderProgram@ma@@MAE_NXZ
?CreateFromMemeory@Texture@ma@@MAE_NXZ
??1ShaderProgram@ma@@UAE@XZ
?GetRenderDevice@ma@@YAPAVIRenderDevice@1@XZ
?SetRenderDevice@ma@@YAXPAVIRenderDevice@1@@Z
?UnRegisterRTTIClass@ClassManager@ma@@QAE_NPAVRTTIClass@2@@Z
??0Resource@ma@@QAE@PBD@Z
??1BinaryInputSerializer@ma@@UAE@XZ
?Close@BinaryInputSerializer@ma@@QAEXXZ
?Open@BinaryInputSerializer@ma@@QAE_NPAVStream@2@@Z
??0BinaryInputSerializer@ma@@QAE@XZ
?DrawLine@LineRender@ma@@QAEXABVVector3@2@0VColourValue@2@@Z
?GetRenderSystem@ma@@YAPAVRenderSystem@1@XZ
?DrawTransform@LineRender@ma@@QAEXABUTransform@2@MM@Z
?GetLineRender@ma@@YAPAVLineRender@1@XZ
??1XMLInputSerializer@ma@@UAE@XZ
?Open@XMLInputSerializer@ma@@QAE_NPAVMemoryStream@2@@Z
??0XMLInputSerializer@ma@@QAE@XZ
?StaticGetClass@Component@ma@@SAPBVRTTIClass@2@XZ
?GetFrameCount@Time@ma@@QBEIXZ
?GetFrameDeltaTime@Time@ma@@QBEMXZ
?GetTimer@ma@@YAPAVTime@1@XZ
?GetMatrixWS@SceneNode@ma@@QBEABVMatrix4@2@XZ
?StaticGetClass@Object@ma@@SAPBVRTTIClass@2@XZ
?GetContext@ma@@YAPAVContext@1@XZ
?DeclareResource@ResourceSystem@ma@@QAEPAVResource@2@PBD@Z
?GetResourceSystem@ma@@YAPAVResourceSystem@1@XZ
?LoadResource@ResourceSystem@ma@@QAEPAVResource@2@PBD@Z
?StaticGetClass@MeshComponent@ma@@SAPBVRTTIClass@2@XZ
?SetSkinMatrix@MeshComponent@ma@@QAEXPBVMatrix4@2@I@Z
?GetUserData@SceneNode@ma@@QAEPAXPBD@Z
?SetUserData@SceneNode@ma@@QAEXPBDPAX@Z
?GetTransformWS@SceneNode@ma@@QBEABUTransform@2@XZ
?SetTransformWS@SceneNode@ma@@QAEXABUTransform@2@@Z
??0Thread@ma@@QAE@XZ
?Start@Thread@ma@@UAEXXZ
?Stop@Thread@ma@@UAEXXZ
?ThreadLoop@Thread@ma@@UAEXXZ
?GetArchiveMananger@ma@@YAPAVArchiveManager@1@XZ
?GetArchiveByIndex@ArchiveManager@ma@@QAEPAVArchive@2@I@Z
?getNamespace@Properties@ma@@QBEPBDXZ
?getNextNamespace@Properties@ma@@QAEPAV12@XZ
?GetId@Properties@ma@@QBEPBDXZ
?getFloat@Properties@ma@@QBEMPBD@Z
?getVector2@Properties@ma@@QBE_NPBDPAVVector2@2@@Z
?getInt@Properties@ma@@QBEHPBD@Z
?exists@Properties@ma@@QBE_NPBD@Z
?getBool@Properties@ma@@QBE_NPBD_N@Z
?getString@Properties@ma@@QBEPBDPBD@Z
?Draw@SpriteBatch@ma@@QAEXMMMMMMMMABVColourValue@2@ABVRectangle@2@@Z
?SetFilterMode@SamplerState@ma@@QAEXW4FilterOptions@2@@Z
??0SpriteBatch@ma@@QAE@V?$RefPtr@VTexture@ma@@@1@PAVTechnique@1@I@Z
?LoadResourceSync@ResourceSystem@ma@@QAEPAVResource@2@PBD@Z
?StaticGetClass@Texture@ma@@SAPBVRTTIClass@2@XZ
??0MemoryStream@ma@@QAE@PAXI_N@Z
?Open@ArchiveManager@ma@@QBE?AV?$RefPtr@VStream@ma@@@2@PBD_N@Z
?rewind@Properties@ma@@QAEXXZ
?GetProjectionMatrix@SpriteBatch@ma@@QBEABVMatrix4@2@XZ
?SetProjectionMatrix@SpriteBatch@ma@@QAEXABVMatrix4@2@@Z
?getVector4@Properties@ma@@QBE_NPBDPAVVector4@2@@Z
?Draw@SpriteBatch@ma@@QAEXMMMMMMMMMABVColourValue@2@_N@Z
?GetStateBlock@SpriteBatch@ma@@QBEAAURenderState@2@XZ
?Reset@MeshBatch@ma@@QAEXXZ
?getColor@Properties@ma@@QBE_NPBDPAVColourValue@2@@Z
?AddSprite@SpriteBatch@ma@@AAEXMMMMMMMMABVColourValue@2@PAUSpriteVertex@12@@Z
?AddSprite@SpriteBatch@ma@@AAEXMMMMMMMMABVColourValue@2@ABVRectangle@2@PAUSpriteVertex@12@@Z
?Draw@SpriteBatch@ma@@AAEXPAUSpriteVertex@12@IPAGI@Z
?Draw@SpriteBatch@ma@@QAEXMMMMMMMMABVColourValue@2@@Z
?create@Properties@ma@@SAPAV12@PBD@Z
?SetViewPort@RenderSystem@ma@@QAE?AVRectangle@2@ABV32@@Z
?SetRenderTarget@RenderSystem@ma@@QAE?AV?$RefPtr@VTexture@ma@@@2@V32@H@Z
??1Properties@ma@@QAE@XZ
?ClearBuffer@RenderSystem@ma@@QAEX_N00ABVColourValue@2@MH@Z
?getPath@Properties@ma@@QBE_NPBDQAD@Z
?Init@RenderSystem@ma@@QAEXPAUHWND__@@@Z
?ShoutDown@RenderSystem@ma@@QAEXXZ
?Update@ParticleSystem@ma@@QAEXXZ
?GetParticleSystem@ma@@YAPAVParticleSystem@1@XZ
?GetLightSystem@ma@@YAPAVLightSystem@1@XZ
?Update@RenderSystem@ma@@QAEXXZ
?ShoutDown@ResourceSystem@ma@@QAEXXZ
?Update@ResourceSystem@ma@@QAEXXZ
?UpdateFrame@Time@ma@@QAEXXZ
?GetPos@SceneNode@ma@@QBEABVVector3@2@XZ
?GetSceneNode@Component@ma@@QAEPAVSceneNode@2@XZ
?GetForward@SceneNode@ma@@QAE?AVVector3@2@XZ
?RotateAround@SceneNode@ma@@QAEXABVVector3@2@V32@M@Z
?GetRight@SceneNode@ma@@QAE?AVVector3@2@XZ
?GetUp@SceneNode@ma@@QAE?AVVector3@2@XZ
?Translate@SceneNode@ma@@QAEXABVVector3@2@@Z
?Forward@SceneNode@ma@@QAEXM@Z
?SetScale@SceneNode@ma@@QAEXABVVector3@2@@Z
?Load@MeshComponent@ma@@QAE_NPBD0@Z
?AddSubMatData@MaterialData@ma@@QAEXABUSubMaterialData@2@@Z
?SetTexturePath@SamplerState@ma@@QAEXPBD@Z
??0SamplerState@ma@@QAE@XZ
?CreateNode@Scene@ma@@QAEPAVSceneNode@2@PBD@Z
?LookAt@SceneNode@ma@@QAEXABVVector3@2@0@Z
?GetDirection@DirectonalLight@ma@@QAE?AVVector3@2@XZ
?DrawWireSphere@LineRender@ma@@QAEXABVMatrix4@2@MVColourValue@2@@Z
?Right@SceneNode@ma@@QAEXM@Z
?Reset@Scene@ma@@QAEXXZ
?Clone@SceneNode@ma@@QAEPAV12@PBD@Z
?Close@XMLInputSerializer@ma@@QAE_NXZ
??1XMLOutputSerializer@ma@@UAE@XZ
??0XMLOutputSerializer@ma@@QAE@XZ
?GetRotationWS@SceneNode@ma@@QBEABVQuaternion@2@XZ
?AddArchive@ArchiveManager@ma@@QAEXPAVArchive@2@@Z
?CreateFileArchive@ma@@YA?AV?$RefPtr@VArchive@ma@@@1@PBD@Z
?EngineModuleShutdown@@YAXXZ
?Init@RenderScheme@ma@@QAEXXZ
?EngineModuleInit@@YAXXZ
?Attribute@TiXmlElement@@QBEPBDPBD@Z
?Parse@TiXmlDocument@@UAEPBDPBDPAVTiXmlParsingData@@W4TiXmlEncoding@@@Z
??0TiXmlDocument@@QAE@XZ
?ReadAll@ArchiveManager@ma@@QBE?AV?$RefPtr@VMemoryStream@ma@@@2@PBDI@Z
??0RenderScheme@ma@@QAE@XZ
?SetPerspective@Camera@ma@@QAEXMMMM@Z
?AddComponent@SceneNode@ma@@QAEXPAVComponent@2@@Z
?StaticGetClass@Camera@ma@@SAPBVRTTIClass@2@XZ
?NextSiblingElement@TiXmlNode@@QBEPBVTiXmlElement@@XZ
?FirstChildElement@TiXmlNode@@QBEPBVTiXmlElement@@PBD@Z
??1TiXmlNode@@UAE@XZ
?Print@TiXmlDocument@@UBEXPAU_iobuf@@H@Z
?Clone@TiXmlDocument@@MBEPAVTiXmlNode@@XZ
?Accept@TiXmlDocument@@UBE_NPAVTiXmlVisitor@@@Z
?nullrep_@TiXmlString@@0URep@1@A
?FirstChildElement@TiXmlNode@@QBEPBVTiXmlElement@@XZ
?Render@RenderSystem@ma@@QAEXXZ
?StaticGetClass@DirectonalLight@ma@@SAPBVRTTIClass@2@XZ
?GetClassManager@ma@@YAPAVClassManager@1@XZ
?GetObjectFactoryManager@ma@@YAPAVObjectFactoryManager@1@XZ
?AddRenderPass@RenderScheme@ma@@QAEXPAVRenderPass@2@@Z
?isFloatingPoint@PixelUtil@ma@@SA_NW4PixelFormat@2@@Z
?TexStreamComplete@RenderSystem@ma@@QAEXPAVTexture@2@@Z
?GetMatViewProj@Camera@ma@@QAEABVMatrix4@2@XZ
?GetPSFile@ShaderProgram@ma@@IBEPBDXZ
?GetVSFile@ShaderProgram@ma@@IBEPBDXZ
?GetShaderDefine@ShaderProgram@ma@@IBEPBDXZ
?GetScene@RenderSystem@ma@@QAEPAVScene@2@H@Z
?FindChildNode@SceneNode@ma@@QAEPAV12@PBD@Z
??0Serializable@ma@@QAE@XZ
?CreateTechnique@ma@@YA?AV?$RefPtr@VTechnique@ma@@@1@PBD000@Z
?SetMaterialMap@Terrain@ma@@QAEXPBD@Z
?SetBlendMap@Terrain@ma@@QAEXPBD@Z
?SetHeightMap@Terrain@ma@@QAEXPBD@Z
?SetParameter@Technique@ma@@QAEXPBDABVAny@2@@Z
?SetParameter@Technique@ma@@QAEXPBDABVAny@2@@Z
?CreateTerrain@ma@@YA?AV?$RefPtr@VTerrain@ma@@@1@XZ
?CreateTexture@ma@@YA?AV?$RefPtr@VTexture@ma@@@1@PBD@Z
?log@DeviceCapabilitie@ma@@QAEXXZ
?GetDeviceCapabilities@ma@@YAPAVDeviceCapabilitie@1@XZ
?Save@XMLOutputSerializer@ma@@QAE_NPBD@Z
?SetTrunkSize@Terrain@ma@@QAEXH@Z
?AddChild@SceneNode@ma@@QAEXPAV12@@Z
?AddMaterial@Terrain@ma@@QAEXPAVSubMaterial@2@@Z
?AddTechnique@SubMaterial@ma@@QAEPAVTechnique@2@PBD00@Z
?CreateSubMaterial@ma@@YA?AV?$RefPtr@VSubMaterial@ma@@@1@XZ
?SetMaterialPath@Terrain@ma@@QAEXPBD@Z
?AddParameter@SubMaterialData@ma@@QAEXPBDVAny@2@@Z
??0MaterialData@ma@@QAE@PBD@Z
??1MaterialData@ma@@UAE@XZ
?SetShderMacro@SubMaterialData@ma@@QAEXPBD@Z
?SetShaderName@SubMaterialData@ma@@QAEXPBD@Z
?AddSubMatData@MaterialData@ma@@QAEAAUSubMaterialData@2@XZ
?SetSaveDir@ArchiveManager@ma@@QAEXPBD@Z
?CreateTerrain@ma@@YA?AV?$RefPtr@VTerrain@ma@@@1@PBD@Z
?RegisterResourceFactory@ResourceSystem@ma@@QAEXPBDP6APAVResource@2@XZ@Z
?UnregisterResourceFactory@ResourceSystem@ma@@QAEXPBDP6APAVResource@2@XZ@Z
?SetDataThreadEnable@ResourceSystem@ma@@QAEX_N@Z
?OnLoadOver@Terrain@ma@@QAE_NXZ
?CreateSamplerState@ma@@YA?AV?$RefPtr@VSamplerState@ma@@@1@XZ
?GetShadingTechnqiue@SubMaterial@ma@@QAEPAVTechnique@2@XZ
?GetSubMaterial@MeshComponent@ma@@QAEPAVSubMaterial@2@I@Z
?StaticInitClass@Resource@ma@@SAXXZ
??0Component@ma@@QAE@XZ
?Init@ResourceSystem@ma@@QAEXXZ
?StaticInitClass@Component@ma@@SAXXZ
?CopyBaseAttributes@Context@ma@@QAEXPBD0@Z
??0SceneNode@ma@@QAE@PAVScene@1@PBD@Z
?SetPos@SceneNode@ma@@QAEXABVVector3@2@@Z
?GetScale@SceneNode@ma@@QBEABVVector3@2@XZ
?GetRotation@SceneNode@ma@@QBEABVQuaternion@2@XZ
?SetRotation@SceneNode@ma@@QAEXABVQuaternion@2@@Z
?GetPosWS@SceneNode@ma@@QBEABVVector3@2@XZ
?SetPosWS@SceneNode@ma@@QAEXABVVector3@2@@Z
?SetRotationWS@SceneNode@ma@@QAEXABVQuaternion@2@@Z
?GetScaleWS@SceneNode@ma@@QBEABVVector3@2@XZ
?SetScaleWS@SceneNode@ma@@QAEXABVVector3@2@@Z
?Up@SceneNode@ma@@QAEXM@Z
?LookAt@SceneNode@ma@@QAEXABVVector3@2@@Z
?RemoveComponent@SceneNode@ma@@QAEXPAVComponent@2@@Z
?RemoveChild@SceneNode@ma@@QAEXPAV12@@Z
?RemoveAllChild@SceneNode@ma@@QAEXXZ
?StaticGetClass@MeshData@ma@@SAPBVRTTIClass@2@XZ
??1MeshData@ma@@UAE@XZ
??0MeshData@ma@@QAE@PBD@Z
?AddSubMeshData@MeshData@ma@@QAEPAVSubMeshData@2@XZ
?AddBonePalette@SubMeshData@ma@@QAEXG@Z
?SetEnabled@RenderShadowCSM@ma@@QAEX_N@Z
?GetRenderShadowCSM@ma@@YAPAVRenderShadowCSM@1@XZ
?AddUniform@ShaderProgram@ma@@IAEPAVUniform@2@PBD@Z
?SetDirectionalLight@Scene@ma@@QAEXABVColourValue@2@ABVVector3@2@@Z
?GetWorldRayCast@Camera@ma@@QAE?AVRay@2@ABVVector2@2@@Z
?GetHeight@Terrain@ma@@QBEMMM@Z