EXPORTS

??1Skeleton@ma@@UAE@XZ
??0Skeleton@ma@@QAE@XZ
??0Animation@ma@@QAE@XZ
?InitResPose@Skeleton@ma@@QAEXXZ
?GetBoneIdByName@Skeleton@ma@@QBEGPBD@Z
?AddTrack@Animation@ma@@QAEXPBDABVVector3Track@2@ABVQuaternionTrack@2@1@Z
?GetBoneNameByIndex@Skeleton@ma@@QBEPBDI@Z
?ConverteAnimDataParentToLocalSpace@Animation@ma@@QAE_NPBVSkeleton@2@@Z
?ConverteAnimDataParentToLocalSpace@Animation@ma@@QAE_NPBVSkeleton@2@@Z
?StaticGetClass@Animation@ma@@SAPBVRTTIClass@2@XZ
?AddBone@Skeleton@ma@@QAEXPBDIABUTransform@2@@Z
?PlayAnimation@AnimationComponent@ma@@QAEXPBD@Z
?Load@AnimationComponent@ma@@QAEXPBD0@Z
??1AnimationSet@ma@@UAE@XZ
?AddAnimClip@AnimationSet@ma@@UAEPAVAnimClipNode@2@PBD0@Z
??0AnimationSet@ma@@QAE@XZ
?DebugRender@AnimationComponent@ma@@QAEX_N@Z
?PlayAnimation@AnimationComponent@ma@@QAEXI@Z
?Stop@AnimationComponent@ma@@QAEXXZ
?GetTransformOS@SkeletonPose@ma@@QBEABUTransform@2@G@Z
?UpdateSkinMatrix@AnimationComponent@ma@@QAEXXZ
?SetTransformOS@SkeletonPose@ma@@QAEXPBUTransform@2@G@Z
?SetTreeNode@SkelAnimtion@ma@@QAEXPAVAnimTreeNode@2@@Z
?CreateClipNode@ma@@YA?AV?$RefPtr@VAnimClipNode@ma@@@1@PBD0@Z
?CreateLayerNode@ma@@YA?AV?$RefPtr@VAnimLayerNode@ma@@@1@XZ
?AnimationModuleInit@@YAXXZ
?AnimationModuleShutdown@@YAXXZ
?StaticGetClass@AnimationComponent@ma@@SAPBVRTTIClass@2@XZ