EXPORTS

?InitResPose@Skeleton@ma@@QAEXXZ
?GetBoneIdByName@Skeleton@ma@@QBEGPBD@Z
?GetBoneNameByIndex@Skeleton@ma@@QBEPBDI@Z
?ConverteAnimDataParentToLocalSpace@Animation@ma@@QAE_NPBVSkeleton@2@@Z
?ConverteAnimDataParentToLocalSpace@Animation@ma@@QAE_NPBVSkeleton@2@@Z
?AddBone@Skeleton@ma@@QAEXPBDIABUTransform@2@@Z
?Load@AnimationComponent@ma@@QAEXPBD0@Z
?DebugRender@AnimationComponent@ma@@QAEX_N@Z
?GetTransformOS@SkeletonPose@ma@@QBEABUTransform@2@G@Z
?UpdateSkinMatrix@AnimationComponent@ma@@QAEXXZ
?SetTransformOS@SkeletonPose@ma@@QAEXPBUTransform@2@G@Z
?AnimationModuleInit@@YAXXZ
?AnimationModuleShutdown@@YAXXZ
?SetAnimSetPath@AnimationComponent@ma@@QAEXPBD@Z
?AddSkelAnim@AnimationSet@ma@@QAEXPAVAnimTreeNode@2@@Z
?CreateAnimationSet@ma@@YA?AV?$RefPtr@VAnimationSet@ma@@@1@XZ
?SetSkeletonPath@AnimationComponent@ma@@QAEXPBD@Z
?CreateAnimation@ma@@YA?AV?$RefPtr@VAnimation@ma@@@1@XZ
?CreateSkeleton@ma@@YA?AV?$RefPtr@VSkeleton@ma@@@1@PBD@Z
?SaveToFile@Skeleton@ma@@UAE_NPBD@Z
?AddPoseModifier@AnimTreeNode@ma@@QAEXPAVPoseModifier@2@@Z
?CreateLookAtModifier@ma@@YA?AV?$RefPtr@VLookAtModifier@ma@@@1@XZ
?SetAnimationSet@AnimationComponent@ma@@QAEXPAVAnimationSet@2@@Z
?CreateSkeleton@ma@@YA?AV?$RefPtr@VSkeleton@ma@@@1@XZ
?Pushback@QuaternionTrack@ma@@QAEXIABVQuaternion@2@@Z
?Pushback@Vector3Track@ma@@QAEXIABVVector3@2@@Z
?CreateQuaternionTrack@ma@@YA?AV?$RefPtr@VQuaternionTrack@ma@@@1@XZ
?CreateVector3Track@ma@@YA?AV?$RefPtr@VVector3Track@ma@@@1@XZ
?AddTrack@Animation@ma@@QAEXPBDPBVVector3Track@2@PBVQuaternionTrack@2@1@Z
?CreateClipNode@ma@@YA?AV?$RefPtr@VAnimClipNode@ma@@@1@PBD0@Z
?Load@Animation@ma@@QAE_NPBD0@Z
?SetAnimationTree@AnimationComponent@ma@@QAE_NPAVAnimTreeNode@2@_N@Z
?CreateStateMachineNode@ma@@YA?AV?$RefPtr@VStateMachineNode@ma@@@1@XZ
?AddParameter@ParameterNode@ma@@QAEPAVBaseParameter@2@PBDM@Z
?SetParameterValue@ParameterNode@ma@@QAE_NPBDM@Z
?AddState@StateMachineNode@ma@@QAEPAVMachineState@2@PBD@Z
?SetStartStateId@StateMachineNode@ma@@QAE_NPBD@Z
?AddCondition@MachineTransition@ma@@QAE_NW4Condition@2@PBDM@Z
?AddTransition@MachineState@ma@@QAEPAVMachineTransition@2@XZ
?SetEndState@MachineTransition@ma@@QAEXPBD@Z