EXPORTS


?getNumElemBytes@PixelUtil@ma@@SAIW4PixelFormat@2@@Z
?isCompressed@PixelUtil@ma@@SA_NW4PixelFormat@2@@Z
?bulkPixelConversion@PixelUtil@ma@@SAXABVPixelBox@2@0@Z
?getMemorySize@PixelUtil@ma@@SAIIIIW4PixelFormat@2@@Z
?SaveToFile@Resource@ma@@UAE_NPBD@Z
?CreateMemoryStream@ma@@YA?AV?$RefPtr@VMemoryStream@ma@@@1@I_N@Z
??1Resource@ma@@UAE@XZ
??1Object@ma@@UAE@XZ
??0Object@ma@@QAE@XZ
??1Component@ma@@UAE@XZ
??1Serializable@ma@@UAE@XZ
?OnAddToSceneNode@Component@ma@@UAEXPAVSceneNode@2@@Z
?OnRemoveFromSceneNode@Component@ma@@UAEXPAVSceneNode@2@@Z
??0VertexDeclaration@ma@@QAE@XZ
??1VertexDeclaration@ma@@UAE@XZ
??1ShaderProgram@ma@@UAE@XZ
?GetRenderDevice@ma@@YAPAVIRenderDevice@1@XZ
?SetRenderDevice@ma@@YAXPAVIRenderDevice@1@@Z
?GetRenderSystem@ma@@YAPAVRenderSystem@1@XZ
?GetFrameCount@Time@ma@@QBEIXZ
?GetFrameDeltaTime@Time@ma@@QBEMXZ
?GetTimer@ma@@YAPAVTime@1@XZ
?GetMatrixWS@SceneNode@ma@@QBEABVMatrix4@2@XZ
?GetUserData@SceneNode@ma@@QAEPAXPBD@Z
?SetUserData@SceneNode@ma@@QAEXPBDPAX@Z
?SetTransformWS@SceneNode@ma@@QAEXABUTransform@2@@Z
?Start@Thread@ma@@UAEXXZ
?Stop@Thread@ma@@UAEXXZ
?GetArchiveMananger@ma@@YAPAVArchiveManager@1@XZ
?GetArchiveByIndex@ArchiveManager@ma@@QAEPAVArchive@2@I@Z
??0MemoryStream@ma@@QAE@PAXI_N@Z
?Reset@MeshBatch@ma@@QAEXXZ
?Shoutdown@RenderSystem@ma@@QAEXXZ
?Update@RenderSystem@ma@@QAEXXZ
?UpdateFrame@Time@ma@@QAEXXZ
?GetPos@SceneNode@ma@@QBEABVVector3@2@XZ
?RotateAround@SceneNode@ma@@QAEXABVVector3@2@V32@M@Z
?Translate@SceneNode@ma@@QAEXABVVector3@2@@Z
?SetScale@SceneNode@ma@@QAEXABVVector3@2@@Z
?Load@MeshComponent@ma@@QAE_NPBD0@Z
?SetTexturePath@SamplerState@ma@@QAEXPBD@Z
??0SamplerState@ma@@QAE@XZ
?Right@SceneNode@ma@@QAEXM@Z
?AddArchive@ArchiveManager@ma@@QAEXPAVArchive@2@@Z
?CreateFileArchive@ma@@YA?AV?$RefPtr@VArchive@ma@@@1@PBD@Z
?Init@RenderScheme@ma@@QAEXXZ
?SetPerspective@Camera@ma@@QAEXMMMM@Z
?AddComponent@SceneNode@ma@@QAEXPAVComponent@2@@Z
?Render@RenderSystem@ma@@QAEXXZ
?GetObjectFactoryManager@ma@@YAPAVObjectFactoryManager@1@XZ
?isFloatingPoint@PixelUtil@ma@@SA_NW4PixelFormat@2@@Z
?TexStreamComplete@RenderSystem@ma@@QAEXPAVTexture@2@@Z
?GetMatViewProj@Camera@ma@@QAEABVMatrix4@2@XZ
?GetScene@RenderSystem@ma@@QAEPAVScene@2@H@Z
?FindChildNode@SceneNode@ma@@QAEPAV12@PBD@Z
??0Serializable@ma@@QAE@XZ
?SetMaterialMap@Terrain@ma@@QAEXPBD@Z
?SetBlendMap@Terrain@ma@@QAEXPBD@Z
?SetHeightMap@Terrain@ma@@QAEXPBD@Z
?SetParameter@Technique@ma@@QAEXPBDABVAny@2@@Z
?SetParameter@Technique@ma@@QAEXPBDABVAny@2@@Z
?CreateTerrain@ma@@YA?AV?$RefPtr@VTerrain@ma@@@1@XZ
?log@DeviceCapabilitie@ma@@QAEXXZ
?GetDeviceCapabilities@ma@@YAPAVDeviceCapabilitie@1@XZ
?SetTrunkSize@Terrain@ma@@QAEXH@Z
?AddChild@SceneNode@ma@@QAEXPAV12@@Z
?AddMaterial@Terrain@ma@@QAEXPAVSubMaterial@2@@Z
?CreateSubMaterial@ma@@YA?AV?$RefPtr@VSubMaterial@ma@@@1@XZ
?SetMaterialPath@Terrain@ma@@QAEXPBD@Z
?SetSaveDir@ArchiveManager@ma@@QAEXPBD@Z
?CreateTerrain@ma@@YA?AV?$RefPtr@VTerrain@ma@@@1@PBD@Z
?GetShadingTechnqiue@SubMaterial@ma@@QAEPAVTechnique@2@XZ
??0Component@ma@@QAE@XZ
??0SceneNode@ma@@QAE@PAVScene@1@PBD@Z
?SetPos@SceneNode@ma@@QAEXABVVector3@2@@Z
?GetScale@SceneNode@ma@@QBEABVVector3@2@XZ
?GetRotation@SceneNode@ma@@QBEABVQuaternion@2@XZ
?SetRotation@SceneNode@ma@@QAEXABVQuaternion@2@@Z
?SetPosWS@SceneNode@ma@@QAEXABVVector3@2@@Z
?SetRotationWS@SceneNode@ma@@QAEXABVQuaternion@2@@Z
?SetScaleWS@SceneNode@ma@@QAEXABVVector3@2@@Z
?Up@SceneNode@ma@@QAEXM@Z
?RemoveComponent@SceneNode@ma@@QAEXPAVComponent@2@@Z
?RemoveChild@SceneNode@ma@@QAEXPAV12@@Z
?RemoveAllChild@SceneNode@ma@@QAEXXZ
?AddBonePalette@SubMeshData@ma@@QAEXG@Z
?GetWorldRayCast@Camera@ma@@QAE?AVRay@2@ABVVector2@2@@Z
?GetHeight@Terrain@ma@@QBEMMM@Z
??0Engine@ma@@QAE@XZ
??1Engine@ma@@QAE@XZ
?Shutdown@Engine@ma@@QAEXXZ
?GetEngine@ma@@YAPAVEngine@1@XZ
?SetEngine@ma@@YAXPAVEngine@1@@Z
?Update@Engine@ma@@QAEXXZ
?Render@Engine@ma@@QAEXXZ
?Init@Engine@ma@@QAEXPAUHWND__@@_N11@Z
?GetAttributeManager@ma@@YAPAVAttributeManager@1@XZ
?CopyBaseAttributes@AttributeManager@ma@@QAEXPBD0@Z
?CreateScene@ma@@YA?AV?$RefPtr@VScene@ma@@@1@XZ
??0HardwareBuffer@ma@@QAE@XZ
??1HardwareBuffer@ma@@UAE@XZ
?FreeData@HardwareBuffer@ma@@QAEXXZ
?Import@Object@ma@@UAE_NPAV?$xml_node@D@rapidxml@@@Z
?Export@Object@ma@@UAE_NPAV?$xml_node@D@rapidxml@@AAV?$xml_document@D@4@@Z
?OnSetAttribute@Object@ma@@MAEXABUAttributeInfo@2@ABVAny@2@@Z
?OnGetAttribute@Object@ma@@MBEXABUAttributeInfo@2@AAVAny@2@@Z
?CreateAttributeInfo@ma@@YA?AV?$RefPtr@UAttributeInfo@ma@@@1@PBDPAVAttributeAccessor@1@ABVAny@1@I@Z
??0Resource@ma@@QAE@XZ
?Load@Resource@ma@@UAE_NPBD@Z
?LoadSync@Resource@ma@@UAEXPBD@Z
?IsReady@Resource@ma@@UAE_NXZ
?LoadFromXML@Serializable@ma@@QAEXPBD@Z
?IsReady@Serializable@ma@@QAE_NXZ
?RegisterObjectFactory@ObjectFactoryManager@ma@@QAEXPBDP6A?AV?$RefPtr@VObject@ma@@@2@XZ@Z
?CreateObject@ObjectFactoryManager@ma@@QAE?AV?$RefPtr@VObject@ma@@@2@PBD@Z
?RegisterAttribute@AttributeManager@ma@@QAEXPBDV?$RefPtr@UAttributeInfo@ma@@@2@@Z
??0Animatable@ma@@QAE@XZ
??1Animatable@ma@@QAE@XZ
?Play@Animatable@ma@@QAEXM@Z
?Process@Animatable@ma@@QAEMXZ
?SetFrame@Animatable@ma@@UAEXM@Z
?ReadByte@Stream@ma@@QAECXZ
?ReadUInt@Stream@ma@@QAEIXZ
?ReadUShort@Stream@ma@@QAEGXZ
?ReadBool@Stream@ma@@QAE_NXZ
?ReadFloat@Stream@ma@@QAEMXZ
?ReadVector3@Stream@ma@@QAE?AVVector3@2@XZ
?ReadQuaternion@Stream@ma@@QAE?AVQuaternion@2@XZ
?WriteUInt@Stream@ma@@QAE_NI@Z
?CreateFileStream@ma@@YA?AV?$RefPtr@VFileStream@ma@@@1@PBD@Z
?DrawLine@LineRender@ma@@SAXABVVector3@2@0VColourValue@2@@Z
?DrawTransform@LineRender@ma@@SAXABUTransform@2@MM@Z
?GetSceneNode@Component@ma@@QBEPAVSceneNode@2@XZ
?SetNeedChange@Component@ma@@UAEXW4CHANGE_TYPE@2@@Z
?AddParallelUpdate@Scene@ma@@QAEXPAVComponent@2@@Z
?SetSkinMatrix@SkinMeshComponent@ma@@QAEXPBVMatrix3x4@2@I@Z
?ReadAll@ArchiveManager@ma@@QAE?AV?$RefPtr@VMemoryStream@ma@@@2@PBD@Z
?Unlock@HardwareBuffer@ma@@UAEXXZ
?Lock@HardwareBuffer@ma@@UAEPAXW4LOCK@2@@Z
?GetStreanmStride@VertexDeclaration@ma@@QBEII@Z
?GetElementCount@VertexDeclaration@ma@@QAEII@Z
?GetElement@VertexDeclaration@ma@@QAEABUVertexElement@2@II@Z
??0RasterizerState@ma@@QAE@XZ
??0DepthStencilState@ma@@QAE@XZ
??0BlendState@ma@@QAE@XZ
?GetShaderPath@RenderSystem@ma@@QAEPBDXZ
?GetNumShaderGlobaMacro@RenderSystem@ma@@QBEIXZ
?GetShaderGlobaMacroByIndex@RenderSystem@ma@@QBEPBDIAAPBD@Z
?bulkPixelConversion@ImageData@ma@@QAEXW4PixelFormat@2@@Z
?getNumFaces@ImageData@ma@@QBEIXZ
??0Texture@ma@@QAE@XZ
??0Texture@ma@@QAE@HHIW4PixelFormat@1@_N1W4TEXTURE_USAGE@1@W4TEXTURE_TYPE@1@@Z
??1Texture@ma@@UAE@XZ
?InitRes@Texture@ma@@UAE_NXZ
??0ShaderProgram@ma@@QAE@XZ
?GetVSFile@ShaderProgram@ma@@QBEPBDXZ
?GetPSFile@ShaderProgram@ma@@QBEPBDXZ
?GetShaderMacro@ShaderProgram@ma@@QBEPBDXZ
?AddConstBuffer@ShaderProgram@ma@@QAEXW4ShaderType@2@PAVConstantBuffer@2@@Z
?GetConstBufferCount@ShaderProgram@ma@@QAEIW4ShaderType@2@@Z
?GetConstBufferByIndex@ShaderProgram@ma@@QAEPAVConstantBuffer@2@W4ShaderType@2@I@Z
?AddSampler@ShaderProgram@ma@@QAEXPAVUniform@2@@Z
?GetSamplerCount@ShaderProgram@ma@@QAEIXZ
?GetSamplerByIndex@ShaderProgram@ma@@QAEPAVUniform@2@I@Z
??0Technique@ma@@QAE@XZ
??1Technique@ma@@UAE@XZ
?Bind@Technique@ma@@UAEXPAVRenderable@2@@Z
?UnBind@Technique@ma@@UAEXXZ
?AddConstBuffer@Technique@ma@@QAEXW4ShaderType@2@PAVConstantBuffer@2@@Z
?GetConstBufferCount@Technique@ma@@QAEIW4ShaderType@2@@Z
?GetConstBufferByIndex@Technique@ma@@QAEPAVConstantBuffer@2@W4ShaderType@2@I@Z
?ClearConstBuffer@Technique@ma@@QAEXW4ShaderType@2@@Z
?AddSampler@Technique@ma@@QAEXPAVUniform@2@@Z
?GetSamplerCount@Technique@ma@@QAEIXZ
?Import@Technique@ma@@UAE_NPAV?$xml_node@D@rapidxml@@@Z
?Export@Technique@ma@@UAE_NPAV?$xml_node@D@rapidxml@@AAV?$xml_document@D@4@@Z
?BindUniform@Technique@ma@@IAEXPAVRenderable@2@@Z
?AddUniform@ConstantBuffer@ma@@QAEPAVUniform@2@PBD@Z
?GetUniformCount@ConstantBuffer@ma@@QAEIXZ
?GetUniformByIndex@ConstantBuffer@ma@@QAEPAVUniform@2@I@Z
?SetName@ConstantBuffer@ma@@QAEXPBD@Z
?GetName@ConstantBuffer@ma@@QAEPBDXZ
?GetName@Uniform@ma@@QBEPBDXZ
?CreateUniform@ma@@YA?AV?$RefPtr@VUniform@ma@@@1@PBD@Z
?UseDefaultBing@ParameterManager@ma@@QAEXPAVUniform@2@@Z
?GetParameterManager@ma@@YAPAVParameterManager@1@XZ
?GetSamplerByIndex@Technique@ma@@QAEPAVUniform@2@I@Z
??0Thread@ma@@QAE@PBD@Z
?UnRegisterObjectFactory@ObjectFactoryManager@ma@@QAEXPBDP6A?AV?$RefPtr@VObject@ma@@@2@XZ@Z
?GetTransformWS@SceneNode@ma@@QAEABUTransform@2@XZ
?Reset@Engine@ma@@QAEXII@Z
?SaveToXML@Serializable@ma@@QAEXPBD@Z
??0VertexElement@ma@@QAE@XZ
??0VertexElement@ma@@QAE@FFW4DECL_TYPE@1@W4DECL_USAGE@1@E@Z
?SetSMAAEnabled@RenderScheme@ma@@QAEX_N@Z
?GetSMAAEnabled@RenderScheme@ma@@QBE_NXZ
?SetDeferredShadingEnabled@RenderScheme@ma@@QAEX_N@Z
?GetDeferredShadingEnabled@RenderScheme@ma@@QBE_NXZ
?CreateVertexDeclaration@RenderSystem@ma@@QAE?AV?$RefPtr@VVertexDeclaration@ma@@@2@PAUVertexElement@2@I@Z
?DrawWireSphere@LineRender@ma@@SAXABVMatrix4@2@MVColourValue@2@@Z
?CreateSamplerState@ma@@YA?AV?$RefPtr@VSamplerState@ma@@@1@PBDW4Wrap@1@W4Filter@1@_N@Z
?SetShaderMacroBool@Technique@ma@@QAEXPBD_N@Z
?CreateTechnique@ma@@YA?AV?$RefPtr@VTechnique@ma@@@1@PBD0@Z
?CreateTechnique@ma@@YA?AV?$RefPtr@VTechnique@ma@@@1@PBD000PAVVertexDeclaration@1@@Z
?SetShadingTechnqiue@SubMaterial@ma@@QAEXPAVTechnique@2@@Z
?SetParameter@SubMaterial@ma@@QAEXPBDABVAny@2@@Z
?GetLodSubNumber@Material@ma@@QBEII@Z
?GetLodSubByIndex@Material@ma@@QBEPAVSubMaterial@2@II@Z
?AddSubMaterial@Material@ma@@QAEXIPAVSubMaterial@2@@Z
?Clone@Material@ma@@QAE?AV?$RefPtr@VMaterial@ma@@@2@XZ
?CreateMaterial@ma@@YA?AV?$RefPtr@VMaterial@ma@@@1@XZ
?PrefilterCubeGPU@ma@@YAXPBD0@Z
?GenIntegrateBRDF@ma@@YAXPBD@Z
?CreateMaterial@ma@@YA?AV?$RefPtr@VMaterial@ma@@@1@PBD@Z
?AddKeyFrame@UniformAnimation@ma@@QAEXHABVAny@2@@Z
?BuildFrames@UniformAnimation@ma@@QAEXXZ
?CreateUniformAnimation@ma@@YA?AV?$RefPtr@VUniformAnimation@ma@@@1@XZ
?GetName@SceneNode@ma@@QBEPBDXZ
?GetPosWS@SceneNode@ma@@QAEABVVector3@2@XZ
?GetRotationWS@SceneNode@ma@@QAEABVQuaternion@2@XZ
?Clone@SceneNode@ma@@QAE?AV?$RefPtr@VSceneNode@ma@@@2@PBD@Z
?CreateSceneNode@ma@@YA?AV?$RefPtr@VSceneNode@ma@@@1@XZ
?CreateSceneNode@ma@@YA?AV?$RefPtr@VSceneNode@ma@@@1@PBD@Z
?CreateSceneNode@Scene@ma@@QAEPAVSceneNode@2@XZ
?CreateSceneNode@Scene@ma@@QAEPAVSceneNode@2@PBD@Z
?Yaw@Camera@ma@@QAEXABVRadian@2@@Z
?Pitch@Camera@ma@@QAEXABVRadian@2@@Z
?SetMaterial@MeshComponent@ma@@QAEXPAVMaterial@2@@Z
?SetRadius@PointLight@ma@@QAEXM@Z
?CreatePointLight@ma@@YA?AV?$RefPtr@VPointLight@ma@@@1@XZ
?SetShadowEnabled@DirectonalLight@ma@@QAEX_N@Z
?CreateDirectonalLight@ma@@YA?AV?$RefPtr@VDirectonalLight@ma@@@1@XZ
?GetMatViewProjInv@Camera@ma@@QAEABVMatrix4@2@XZ