EXPORTS


?getNumElemBytes@PixelUtil@ma@@SAIW4PixelFormat@2@@Z
?isCompressed@PixelUtil@ma@@SA_NW4PixelFormat@2@@Z
?bulkPixelConversion@PixelUtil@ma@@SAXABVPixelBox@2@0@Z
?getMemorySize@PixelUtil@ma@@SAIIIIW4PixelFormat@2@@Z
?LoadFileToMemeory@Resource@ma@@MAE_NXZ
?CreateFromMemeory@Resource@ma@@MAE_NXZ
?CreateMemoryStream@ma@@YA?AV?$RefPtr@VMemoryStream@ma@@@1@I_N@Z
??1Resource@ma@@UAE@XZ
??1Object@ma@@UAE@XZ
??0Object@ma@@QAE@XZ
??1Component@ma@@UAE@XZ
??1Serializable@ma@@UAE@XZ
?OnAddToSceneNode@Component@ma@@UAEXPAVSceneNode@2@@Z
?OnRemoveFromSceneNode@Component@ma@@UAEXPAVSceneNode@2@@Z
??0Texture@ma@@QAE@HHW4PixelFormat@1@W4USAGE@1@@Z
??0VertexDeclaration@ma@@QAE@XZ
??1VertexDeclaration@ma@@UAE@XZ
??1ShaderProgram@ma@@UAE@XZ
??0ShaderProgram@ma@@QAE@XZ
?GetRenderDevice@ma@@YAPAVIRenderDevice@1@XZ
?SetRenderDevice@ma@@YAXPAVIRenderDevice@1@@Z
?DrawLine@LineRender@ma@@QAEXABVVector3@2@0VColourValue@2@@Z
?GetRenderSystem@ma@@YAPAVRenderSystem@1@XZ
?DrawTransform@LineRender@ma@@QAEXABUTransform@2@MM@Z
?GetLineRender@ma@@YAPAVLineRender@1@XZ
?GetFrameCount@Time@ma@@QBEIXZ
?GetFrameDeltaTime@Time@ma@@QBEMXZ
?GetTimer@ma@@YAPAVTime@1@XZ
?GetMatrixWS@SceneNode@ma@@QBEABVMatrix4@2@XZ
?GetUserData@SceneNode@ma@@QAEPAXPBD@Z
?SetUserData@SceneNode@ma@@QAEXPBDPAX@Z
?GetTransformWS@SceneNode@ma@@QBEABUTransform@2@XZ
?SetTransformWS@SceneNode@ma@@QAEXABUTransform@2@@Z
??0Thread@ma@@QAE@XZ
?Start@Thread@ma@@UAEXXZ
?Stop@Thread@ma@@UAEXXZ
?ThreadLoop@Thread@ma@@UAEXXZ
?GetArchiveMananger@ma@@YAPAVArchiveManager@1@XZ
?GetArchiveByIndex@ArchiveManager@ma@@QAEPAVArchive@2@I@Z
?Draw@SpriteBatch@ma@@QAEXMMMMMMMMABVColourValue@2@ABVRectangle@2@@Z
??0SpriteBatch@ma@@QAE@V?$RefPtr@VTexture@ma@@@1@PAVTechnique@1@I@Z
??0MemoryStream@ma@@QAE@PAXI_N@Z
?Open@ArchiveManager@ma@@QBE?AV?$RefPtr@VStream@ma@@@2@PBD_N@Z
?GetProjectionMatrix@SpriteBatch@ma@@QBEABVMatrix4@2@XZ
?SetProjectionMatrix@SpriteBatch@ma@@QAEXABVMatrix4@2@@Z
?Draw@SpriteBatch@ma@@QAEXMMMMMMMMMABVColourValue@2@_N@Z
?Reset@MeshBatch@ma@@QAEXXZ
?AddSprite@SpriteBatch@ma@@AAEXMMMMMMMMABVColourValue@2@PAUSpriteVertex@12@@Z
?AddSprite@SpriteBatch@ma@@AAEXMMMMMMMMABVColourValue@2@ABVRectangle@2@PAUSpriteVertex@12@@Z
?Draw@SpriteBatch@ma@@AAEXPAUSpriteVertex@12@IPAGI@Z
?Draw@SpriteBatch@ma@@QAEXMMMMMMMMABVColourValue@2@@Z
?SetViewPort@RenderSystem@ma@@QAE?AVRectangle@2@ABV32@@Z
?SetRenderTarget@RenderSystem@ma@@QAE?AV?$RefPtr@VTexture@ma@@@2@V32@H@Z
?ClearBuffer@RenderSystem@ma@@QAEX_N00ABVColourValue@2@MH@Z
?Shoutdown@RenderSystem@ma@@QAEXXZ
?GetLightSystem@ma@@YAPAVLightSystem@1@XZ
?Update@RenderSystem@ma@@QAEXXZ
?UpdateFrame@Time@ma@@QAEXXZ
?GetPos@SceneNode@ma@@QBEABVVector3@2@XZ
?GetForward@SceneNode@ma@@QAE?AVVector3@2@XZ
?RotateAround@SceneNode@ma@@QAEXABVVector3@2@V32@M@Z
?GetRight@SceneNode@ma@@QAE?AVVector3@2@XZ
?GetUp@SceneNode@ma@@QAE?AVVector3@2@XZ
?Translate@SceneNode@ma@@QAEXABVVector3@2@@Z
?Forward@SceneNode@ma@@QAEXM@Z
?SetScale@SceneNode@ma@@QAEXABVVector3@2@@Z
?Load@MeshComponent@ma@@QAE_NPBD0@Z
?LookAt@SceneNode@ma@@QAEXABVVector3@2@0@Z
?DrawWireSphere@LineRender@ma@@QAEXABVMatrix4@2@MVColourValue@2@@Z
?Right@SceneNode@ma@@QAEXM@Z
?Reset@Scene@ma@@QAEXXZ
?GetRotationWS@SceneNode@ma@@QBEABVQuaternion@2@XZ
?AddArchive@ArchiveManager@ma@@QAEXPAVArchive@2@@Z
?CreateFileArchive@ma@@YA?AV?$RefPtr@VArchive@ma@@@1@PBD@Z
?Init@RenderScheme@ma@@QAEXXZ
?ReadAll@ArchiveManager@ma@@QBE?AV?$RefPtr@VMemoryStream@ma@@@2@PBDI@Z
?SetPerspective@Camera@ma@@QAEXMMMM@Z
?AddComponent@SceneNode@ma@@QAEXPAVComponent@2@@Z
?Render@RenderSystem@ma@@QAEXXZ
?GetObjectFactoryManager@ma@@YAPAVObjectFactoryManager@1@XZ
?AddRenderPass@RenderScheme@ma@@QAEXPAVRenderPass@2@@Z
?isFloatingPoint@PixelUtil@ma@@SA_NW4PixelFormat@2@@Z
?TexStreamComplete@RenderSystem@ma@@QAEXPAVTexture@2@@Z
?GetMatViewProj@Camera@ma@@QAEABVMatrix4@2@XZ
?GetScene@RenderSystem@ma@@QAEPAVScene@2@H@Z
?FindChildNode@SceneNode@ma@@QAEPAV12@PBD@Z
??0Serializable@ma@@QAE@XZ
?CreateTechnique@ma@@YA?AV?$RefPtr@VTechnique@ma@@@1@PBD000@Z
?SetMaterialMap@Terrain@ma@@QAEXPBD@Z
?SetBlendMap@Terrain@ma@@QAEXPBD@Z
?SetHeightMap@Terrain@ma@@QAEXPBD@Z
?SetParameter@Technique@ma@@QAEXPBDABVAny@2@@Z
?SetParameter@Technique@ma@@QAEXPBDABVAny@2@@Z
?CreateTerrain@ma@@YA?AV?$RefPtr@VTerrain@ma@@@1@XZ
?log@DeviceCapabilitie@ma@@QAEXXZ
?GetDeviceCapabilities@ma@@YAPAVDeviceCapabilitie@1@XZ
?SetTrunkSize@Terrain@ma@@QAEXH@Z
?AddChild@SceneNode@ma@@QAEXPAV12@@Z
?AddMaterial@Terrain@ma@@QAEXPAVSubMaterial@2@@Z
?CreateSubMaterial@ma@@YA?AV?$RefPtr@VSubMaterial@ma@@@1@XZ
?SetMaterialPath@Terrain@ma@@QAEXPBD@Z
?SetSaveDir@ArchiveManager@ma@@QAEXPBD@Z
?CreateTerrain@ma@@YA?AV?$RefPtr@VTerrain@ma@@@1@PBD@Z
?GetShadingTechnqiue@SubMaterial@ma@@QAEPAVTechnique@2@XZ
??0Component@ma@@QAE@XZ
??0SceneNode@ma@@QAE@PAVScene@1@PBD@Z
?SetPos@SceneNode@ma@@QAEXABVVector3@2@@Z
?GetScale@SceneNode@ma@@QBEABVVector3@2@XZ
?GetRotation@SceneNode@ma@@QBEABVQuaternion@2@XZ
?SetRotation@SceneNode@ma@@QAEXABVQuaternion@2@@Z
?GetPosWS@SceneNode@ma@@QBEABVVector3@2@XZ
?SetPosWS@SceneNode@ma@@QAEXABVVector3@2@@Z
?SetRotationWS@SceneNode@ma@@QAEXABVQuaternion@2@@Z
?GetScaleWS@SceneNode@ma@@QBEABVVector3@2@XZ
?SetScaleWS@SceneNode@ma@@QAEXABVVector3@2@@Z
?Up@SceneNode@ma@@QAEXM@Z
?LookAt@SceneNode@ma@@QAEXABVVector3@2@@Z
?RemoveComponent@SceneNode@ma@@QAEXPAVComponent@2@@Z
?RemoveChild@SceneNode@ma@@QAEXPAV12@@Z
?RemoveAllChild@SceneNode@ma@@QAEXXZ
??1MeshData@ma@@UAE@XZ
?AddBonePalette@SubMeshData@ma@@QAEXG@Z
?SetEnabled@RenderShadowCSM@ma@@QAEX_N@Z
?AddUniform@ShaderProgram@ma@@IAEPAVUniform@2@PBD@Z
?GetWorldRayCast@Camera@ma@@QAE?AVRay@2@ABVVector2@2@@Z
?GetHeight@Terrain@ma@@QBEMMM@Z
??0Engine@ma@@QAE@XZ
??1Engine@ma@@QAE@XZ
?Shutdown@Engine@ma@@QAEXXZ
?GetEngine@ma@@YAPAVEngine@1@XZ
?Update@Engine@ma@@QAEXXZ
?Render@Engine@ma@@QAEXXZ
?Init@Engine@ma@@QAEXPAUHWND__@@_N11@Z
?GetAttributeManager@ma@@YAPAVAttributeManager@1@XZ
?CopyBaseAttributes@AttributeManager@ma@@QAEXPBD0@Z
?IsReady@Resource@ma@@UAE_NXZ
?CreateScene@ma@@YA?AV?$RefPtr@VScene@ma@@@1@XZ
??0HardwareBuffer@ma@@QAE@XZ
??1HardwareBuffer@ma@@UAE@XZ
?FreeData@HardwareBuffer@ma@@QAEXXZ
?SetRenderSystemName@DeviceCapabilitie@ma@@QAEXPBD@Z
?SetDeviceName@DeviceCapabilitie@ma@@QAEXPBD@Z
??0Texture@ma@@QAE@XZ
??1Texture@ma@@UAE@XZ
?IsReady@Texture@ma@@UAE_NXZ
?Rotate@SceneNode@ma@@QAEXABVQuaternion@2@_N@Z
?Yaw@SceneNode@ma@@QAEXM_N@Z
?Pitch@SceneNode@ma@@QAEXM_N@Z
?Roll@SceneNode@ma@@QAEXM_N@Z
?GetVSFile@ShaderProgram@ma@@QBEPBDXZ
?GetPSFile@ShaderProgram@ma@@QBEPBDXZ
?GetShaderMacro@ShaderProgram@ma@@QBEPBDXZ
?SetData@HardwareBuffer@ma@@QAEXPAEIHW4USAGE@2@@Z
?Update@RenderComponent@ma@@UAEXXZ
?AddParallelUpdate@Scene@ma@@QAEXPAVComponent@2@@Z
?CreateSceneNode@ma@@YA?AV?$RefPtr@VSceneNode@ma@@@1@PBD@Z
?CreateSceneNode@ma@@YA?AV?$RefPtr@VSceneNode@ma@@@1@XZ
?Clone@SceneNode@ma@@QAE?AV?$RefPtr@VSceneNode@ma@@@2@PBD@Z
?SetShadingTechnqiue@SubMaterial@ma@@QAEXPAVTechnique@2@@Z
?CreateMaterial@ma@@YA?AV?$RefPtr@VMaterial@ma@@@1@XZ
?SetShadingTechnqiue@SubMaterial@ma@@QAEXPBD0@Z
?SetSkinMatrix@SkinMeshComponent@ma@@QAEXPBVMatrix3x4@2@I@Z
?CreateNode@Scene@ma@@QAEPAVSceneNode@2@PBD@Z
?GetName@SceneNode@ma@@QBEPBDXZ
?LoadFromXML@Serializable@ma@@QAEXPBD@Z
?SaveToXML@Serializable@ma@@QAEXPBD@Z
?IsReady@Serializable@ma@@QAE_NXZ
??0XmlFile@ma@@QAE@XZ
?OnSetAttribute@Object@ma@@MAEXABUAttributeInfo@2@ABVAny@2@@Z
?OnGetAttribute@Object@ma@@MBEXABUAttributeInfo@2@AAVAny@2@@Z
?CreateObject@ObjectFactoryManager@ma@@QAE?AV?$RefPtr@VObject@ma@@@2@PBD@Z
?RegisterObjectFactory@ObjectFactoryManager@ma@@QAEXPBDP6A?AV?$RefPtr@VObject@ma@@@2@XZ@Z
?UnRegisterObjectFactory@ObjectFactoryManager@ma@@QAEXPBDP6A?AV?$RefPtr@VObject@ma@@@2@XZ@Z
?CreateTexture@ma@@YA?AV?$RefPtr@VTexture@ma@@@1@PBDW4Wrap@1@W4Filter@1@@Z
??0XmlFile@ma@@QAE@XZ
?CreateXmlFile@ma@@YA?AV?$RefPtr@VXmlFile@ma@@@1@PBD@Z
?SetParameter@SubMaterial@ma@@QAEXPBDABVAny@2@@Z
?GetSceneNode@Component@ma@@QBEPAVSceneNode@2@XZ
?CreatePointLight@ma@@YA?AV?$RefPtr@VPointLight@ma@@@1@XZ
?GetName@AttributeInfo@ma@@QBEPBDXZ
?CreateAttributeInfo@ma@@YA?AV?$RefPtr@UAttributeInfo@ma@@@1@PBDPAVAttributeAccessor@1@ABVAny@1@I@Z
?RegisterAttribute@AttributeManager@ma@@QAEXPBDV?$RefPtr@UAttributeInfo@ma@@@2@@Z
?Load@Resource@ma@@UAE_NPBD@Z
?LoadSync@Resource@ma@@UAEXPBD@Z
??0Resource@ma@@QAE@XZ
?SaveToFile@Resource@ma@@UAE_NPBD@Z
??0MeshData@ma@@QAE@XZ
??0?$ResourceSystem@VMeshData@ma@@@ma@@QAE@XZ
?SetEngine@ma@@YAXPAVEngine@1@@Z
?ReadTransform@Stream@ma@@QAE?AUTransform@2@XZ
?ReadUInt@Stream@ma@@QAEIXZ
?ReadByte@Stream@ma@@QAECXZ
?ReadVector3@Stream@ma@@QAE?AVVector3@2@XZ
?ReadQuaternion@Stream@ma@@QAE?AVQuaternion@2@XZ
?ReadFloat@Stream@ma@@QAEMXZ
?ReadBool@Stream@ma@@QAE_NXZ
?ReadUShort@Stream@ma@@QAEGXZ
?AddSubMaterial@Material@ma@@QAEXIPAVSubMaterial@2@@Z
?CreateMeshData@ma@@YA?AV?$RefPtr@VMeshData@ma@@@1@PBD@Z
?Improt@Object@ma@@UAE_NPAV?$xml_node@D@rapidxml@@@Z
?Export@Object@ma@@UAE_NPAV?$xml_node@D@rapidxml@@AAV?$xml_document@D@4@@Z
?AddSubMeshData@MeshData@ma@@QAEXIPAVSubMeshData@2@@Z
?CreateSubMeshData@ma@@YA?AV?$RefPtr@VSubMeshData@ma@@@1@XZ
?SaveToFile@MeshData@ma@@UAE_NPBD@Z
?CreateFileStream@ma@@YA?AV?$RefPtr@VFileStream@ma@@@1@PBD@Z
?GetMatViewProjInv@Camera@ma@@QAEABVMatrix4@2@XZ